target datalayout = "e-m:e-p270:32:32-p271:32:32-p272:64:64-i64:64-i128:128-f80:128-n8:16:32:64-S128"
target triple = "x86_64-pc-linux-gnu"

%class.SignatureStream = type { ptr, i32, i32, i32, i32, i8, i32, ptr, ptr }
%class.Symbol = type { i32, i16, [2 x i8] }

@_ZL7OBJ_SIG = internal constant [19 x i8] c"Ljava/lang/Object;\00", align 16

; Function Attrs: mustprogress nounwind uwtable
define linkonce_odr hidden noundef i32 @_ZNK6Symbol6lengthEv(ptr noundef nonnull align 4 dereferenceable(8) %0) #1 comdat align 2 {
  %2 = alloca ptr, align 8
  store ptr %0, ptr %2, align 8
  %3 = load ptr, ptr %2, align 8
  %4 = getelementptr inbounds %class.Symbol, ptr %3, i32 0, i32 1
  %5 = load i16, ptr %4, align 4
  %6 = zext i16 %5 to i32
  ret i32 %6
}

; Function Attrs: mustprogress nounwind uwtable
define linkonce_odr hidden noundef ptr @_ZNK6Symbol4baseEv(ptr noundef nonnull align 4 dereferenceable(8) %0) #1 comdat align 2 {
  %2 = alloca ptr, align 8
  store ptr %0, ptr %2, align 8
  %3 = load ptr, ptr %2, align 8
  %4 = getelementptr inbounds %class.Symbol, ptr %3, i32 0, i32 2
  %5 = getelementptr inbounds [2 x i8], ptr %4, i64 0, i64 0
  ret ptr %5
}

; Function Attrs: mustprogress nounwind uwtable
define linkonce_odr hidden noundef signext i8 @_ZNK6Symbol7char_atEi(ptr noundef nonnull align 4 dereferenceable(8) %0, i32 noundef %1) #1 comdat align 2 {
  %3 = alloca ptr, align 8
  %4 = alloca i32, align 4
  store ptr %0, ptr %3, align 8
  store i32 %1, ptr %4, align 4
  %5 = load ptr, ptr %3, align 8
  %6 = call noundef ptr @_ZNK6Symbol4baseEv(ptr noundef nonnull align 4 dereferenceable(8) %5)
  %7 = load i32, ptr %4, align 4
  %8 = sext i32 %7 to i64
  %9 = getelementptr inbounds i8, ptr %6, i64 %8
  %10 = load i8, ptr %9, align 1
  ret i8 %10
}

; Function Attrs: mustprogress nounwind uwtable
define linkonce_odr hidden noundef i32 @_ZNK6Symbol11utf8_lengthEv(ptr noundef nonnull align 4 dereferenceable(8) %0) #1 comdat align 2 {
  %2 = alloca ptr, align 8
  store ptr %0, ptr %2, align 8
  %3 = load ptr, ptr %2, align 8
  %4 = call noundef i32 @_ZNK6Symbol6lengthEv(ptr noundef nonnull align 4 dereferenceable(8) %3)
  ret i32 %4
}

; Function Attrs: mustprogress nounwind uwtable
define linkonce_odr hidden noundef ptr @_ZNK6Symbol5bytesEv(ptr noundef nonnull align 4 dereferenceable(8) %0) #1 comdat align 2 {
  %2 = alloca ptr, align 8
  store ptr %0, ptr %2, align 8
  %3 = load ptr, ptr %2, align 8
  %4 = call noundef ptr @_ZNK6Symbol4baseEv(ptr noundef nonnull align 4 dereferenceable(8) %3)
  ret ptr %4
}

; Function Attrs: mustprogress nounwind uwtable
define linkonce_odr hidden noundef zeroext i1 @_ZNK6Symbol16contains_byte_atEic(ptr noundef nonnull align 4 dereferenceable(8) %0, i32 noundef %1, i8 noundef signext %2) #1 comdat align 2 {
  %4 = alloca i1, align 1
  %5 = alloca ptr, align 8
  %6 = alloca i32, align 4
  %7 = alloca i8, align 1
  store ptr %0, ptr %5, align 8
  store i32 %1, ptr %6, align 4
  store i8 %2, ptr %7, align 1
  %8 = load ptr, ptr %5, align 8
  %9 = load i32, ptr %6, align 4
  %10 = icmp slt i32 %9, 0
  br i1 %10, label %11, label %12

11:                                               ; preds = %3
  store i1 false, ptr %4, align 1
  br label %24

12:                                               ; preds = %3
  %13 = load i32, ptr %6, align 4
  %14 = call noundef i32 @_ZNK6Symbol11utf8_lengthEv(ptr noundef nonnull align 4 dereferenceable(8) %8)
  %15 = icmp sge i32 %13, %14
  br i1 %15, label %16, label %17

16:                                               ; preds = %12
  store i1 false, ptr %4, align 1
  br label %24

17:                                               ; preds = %12
  %18 = load i8, ptr %7, align 1
  %19 = sext i8 %18 to i32
  %20 = load i32, ptr %6, align 4
  %21 = call noundef signext i8 @_ZNK6Symbol7char_atEi(ptr noundef nonnull align 4 dereferenceable(8) %8, i32 noundef %20)
  %22 = sext i8 %21 to i32
  %23 = icmp eq i32 %19, %22
  store i1 %23, ptr %4, align 1
  br label %24

24:                                               ; preds = %17, %16, %11
  %25 = load i1, ptr %4, align 1
  ret i1 %25
}

; Function Attrs: mustprogress nounwind uwtable
define linkonce_odr hidden noundef ptr @_ZNK15SignatureStream9raw_bytesEv(ptr noundef nonnull align 8 dereferenceable(48) %0) #1 comdat align 2 {
  %2 = alloca ptr, align 8
  store ptr %0, ptr %2, align 8
  %3 = load ptr, ptr %2, align 8
  %4 = getelementptr inbounds %class.SignatureStream, ptr %3, i32 0, i32 0
  %5 = load ptr, ptr %4, align 8
  %6 = call noundef ptr @_ZNK6Symbol5bytesEv(ptr noundef nonnull align 4 dereferenceable(8) %5)
  %7 = getelementptr inbounds %class.SignatureStream, ptr %3, i32 0, i32 1
  %8 = load i32, ptr %7, align 8
  %9 = sext i32 %8 to i64
  %10 = getelementptr inbounds i8, ptr %6, i64 %9
  ret ptr %10
}

; Function Attrs: mustprogress nounwind uwtable
define linkonce_odr hidden noundef zeroext i8 @_ZNK15SignatureStream4typeEv(ptr noundef nonnull align 8 dereferenceable(48) %0) #1 comdat align 2 {
  %2 = alloca ptr, align 8
  store ptr %0, ptr %2, align 8
  %3 = load ptr, ptr %2, align 8
  %4 = getelementptr inbounds %class.SignatureStream, ptr %3, i32 0, i32 5
  %5 = load i8, ptr %4, align 8
  ret i8 %5
}

; Function Attrs: mustprogress nounwind uwtable
define linkonce_odr hidden noundef zeroext i1 @_ZNK15SignatureStream7is_doneEv(ptr noundef nonnull align 8 dereferenceable(48) %0) #1 comdat align 2 {
  %2 = alloca ptr, align 8
  store ptr %0, ptr %2, align 8
  %3 = load ptr, ptr %2, align 8
  %4 = getelementptr inbounds %class.SignatureStream, ptr %3, i32 0, i32 6
  %5 = load i32, ptr %4, align 4
  %6 = icmp slt i32 %5, 0
  ret i1 %6
}

; Function Attrs: mustprogress nounwind uwtable
define linkonce_odr hidden noundef zeroext i1 @_ZNK6Symbol11starts_withEc(ptr noundef nonnull align 4 dereferenceable(8) %0, i8 noundef signext %1) #1 comdat align 2 {
  %3 = alloca ptr, align 8
  %4 = alloca i8, align 1
  store ptr %0, ptr %3, align 8
  store i8 %1, ptr %4, align 1
  %5 = load ptr, ptr %3, align 8
  %6 = load i8, ptr %4, align 1
  %7 = call noundef zeroext i1 @_ZNK6Symbol16contains_byte_atEic(ptr noundef nonnull align 4 dereferenceable(8) %5, i32 noundef 0, i8 noundef signext %6)
  ret i1 %7
}

; Function Attrs: mustprogress nounwind uwtable
define hidden noundef zeroext i1 @_ZN13MethodHandles23is_basic_type_signatureEP6Symbol(ptr noundef %0) #1 align 2 {
  %2 = alloca i1, align 1
  %3 = alloca ptr, align 8
  %4 = alloca %class.SignatureStream, align 8
  %5 = alloca i32, align 4
  store ptr %0, ptr %3, align 8
  %6 = load ptr, ptr %3, align 8
  %7 = load ptr, ptr %3, align 8
  %8 = call noundef zeroext i1 @_ZNK6Symbol11starts_withEc(ptr noundef nonnull align 4 dereferenceable(8) %7, i8 noundef signext 40)
  call void @_ZN15SignatureStreamC1EPK6Symbolb(ptr noundef nonnull align 8 dereferenceable(48) %4, ptr noundef %6, i1 noundef zeroext %8)
  br label %9

9:                                                ; preds = %25, %1
  %10 = call noundef zeroext i1 @_ZNK15SignatureStream7is_doneEv(ptr noundef nonnull align 8 dereferenceable(48) %4)
  %11 = xor i1 %10, true
  br i1 %11, label %13, label %12

12:                                               ; preds = %9
  store i32 2, ptr %5, align 4
  br label %26

13:                                               ; preds = %9
  %14 = call noundef zeroext i8 @_ZNK15SignatureStream4typeEv(ptr noundef nonnull align 8 dereferenceable(48) %4)
  %15 = zext i8 %14 to i32
  switch i32 %15, label %23 [
    i32 12, label %16
    i32 14, label %22
    i32 10, label %22
    i32 11, label %22
    i32 6, label %22
    i32 7, label %22
  ]

16:                                               ; preds = %13
  %17 = call noundef ptr @_ZNK15SignatureStream9raw_bytesEv(ptr noundef nonnull align 8 dereferenceable(48) %4)
  %18 = call i32 @strncmp(ptr noundef %17, ptr noundef @_ZL7OBJ_SIG, i64 noundef 18) #12
  %19 = icmp ne i32 %18, 0
  br i1 %19, label %20, label %21

20:                                               ; preds = %16
  store i1 false, ptr %2, align 1
  store i32 1, ptr %5, align 4
  br label %26

21:                                               ; preds = %16
  br label %24

22:                                               ; preds = %13, %13, %13, %13, %13
  br label %24

23:                                               ; preds = %13
  store i1 false, ptr %2, align 1
  store i32 1, ptr %5, align 4
  br label %26

24:                                               ; preds = %22, %21
  br label %25

25:                                               ; preds = %24
  call void @_ZN15SignatureStream4nextEv(ptr noundef nonnull align 8 dereferenceable(48) %4)
  br label %9, !llvm.loop !10

26:                                               ; preds = %23, %20, %12
  call void @_ZN15SignatureStreamD1Ev(ptr noundef nonnull align 8 dereferenceable(48) %4) #10
  %27 = load i32, ptr %5, align 4
  switch i32 %27, label %31 [
    i32 2, label %28
    i32 1, label %29
  ]

28:                                               ; preds = %26
  store i1 true, ptr %2, align 1
  br label %29

29:                                               ; preds = %28, %26
  %30 = load i1, ptr %2, align 1
  ret i1 %30

31:                                               ; preds = %26
  unreachable
}