; Function Attrs: mustprogress nounwind uwtable
define hidden noundef zeroext i1 @_ZN13MethodHandles23is_basic_type_signatureEP6Symbol(ptr noundef %0) local_unnamed_addr #0 align 2 {
  %2 = alloca %class.SignatureStream, align 8
  %3 = getelementptr inbounds i8, ptr %0, i64 4
  %4 = load i16, ptr %3, align 4
  %.not.i.i = icmp ne i16 %4, 0
  %5 = getelementptr inbounds i8, ptr %0, i64 6
  %6 = load i8, ptr %5, align 1
  %7 = icmp eq i8 %6, 40
  %.0.i.i = select i1 %.not.i.i, i1 %7, i1 false
  call void @_ZN15SignatureStreamC1EPK6Symbolb(ptr noundef nonnull align 8 dereferenceable(48) %2, ptr noundef nonnull %0, i1 noundef zeroext %.0.i.i) #13
  %8 = getelementptr inbounds i8, ptr %2, i64 28
  %9 = load i32, ptr %8, align 4
  %10 = icmp slt i32 %9, 0
  br i1 %10, label %._crit_edge, label %.lr.ph

.lr.ph:                                           ; preds = %1
  %11 = getelementptr inbounds i8, ptr %2, i64 24
  %12 = getelementptr inbounds i8, ptr %2, i64 8
  br label %13

13:                                               ; preds = %.lr.ph, %22
  %14 = load i8, ptr %11, align 8
  switch i8 %14, label %._crit_edge [
    i8 12, label %15
    i8 14, label %22
    i8 10, label %22
    i8 11, label %22
    i8 6, label %22
    i8 7, label %22
  ]

15:                                               ; preds = %13
  %16 = load ptr, ptr %2, align 8
  %17 = getelementptr inbounds i8, ptr %16, i64 6
  %18 = load i32, ptr %12, align 8
  %19 = sext i32 %18 to i64
  %20 = getelementptr inbounds i8, ptr %17, i64 %19
  %21 = call i32 @strncmp(ptr noundef nonnull dereferenceable(1) %20, ptr noundef nonnull dereferenceable(19) @_ZL7OBJ_SIG, i64 noundef 18) #15
  %.not = icmp eq i32 %21, 0
  br i1 %.not, label %22, label %._crit_edge

22:                                               ; preds = %15, %13, %13, %13, %13, %13
  call void @_ZN15SignatureStream4nextEv(ptr noundef nonnull align 8 dereferenceable(48) %2) #13
  %23 = load i32, ptr %8, align 4
  %24 = icmp slt i32 %23, 0
  br i1 %24, label %._crit_edge, label %13, !llvm.loop !10

._crit_edge:                                      ; preds = %22, %15, %13, %1
  %.lcssa = phi i1 [ true, %1 ], [ false, %13 ], [ false, %15 ], [ true, %22 ]
  call void @_ZN15SignatureStreamD1Ev(ptr noundef nonnull align 8 dereferenceable(48) %2) #13
  ret i1 %.lcssa
}